target datalayout = "e-m:e-p270:32:32-p271:32:32-p272:64:64-i64:64-i128:128-f80:128-n8:16:32:64-S128"
target triple = "x86_64-pc-linux-gnu"

@.str.18 = private unnamed_addr constant [33 x i8] c"../openssl/test/evp_extra_test.c\00", align 1
@.str.21 = private unnamed_addr constant [5 x i8] c"null\00", align 1
@.str.140 = private unnamed_addr constant [4 x i8] c"RSA\00", align 1
@.str.247 = private unnamed_addr constant [4 x i8] c"SM2\00", align 1
@.str.301 = private unnamed_addr constant [1 x i8] zeroinitializer, align 1
@.str.531 = private unnamed_addr constant [7 x i8] c"tmpctx\00", align 1
@.str.532 = private unnamed_addr constant [12 x i8] c"tmpnullprov\00", align 1
@.str.533 = private unnamed_addr constant [20 x i8] c"No test for case %d\00", align 1
@.str.534 = private unnamed_addr constant [5 x i8] c"pctx\00", align 1

; Function Attrs: nounwind uwtable
define internal i32 @test_pkey_ctx_fail_without_provider(i32 noundef %0) #0 {
  %2 = alloca i32, align 4
  %3 = alloca ptr, align 8
  %4 = alloca ptr, align 8
  %5 = alloca ptr, align 8
  %6 = alloca ptr, align 8
  %7 = alloca i32, align 4
  %8 = alloca i32, align 4
  store i32 %0, ptr %2, align 4, !tbaa !9
  call void @llvm.lifetime.start.p0(i64 8, ptr %3) #8
  %9 = call ptr @OSSL_LIB_CTX_new()
  store ptr %9, ptr %3, align 8, !tbaa !11
  call void @llvm.lifetime.start.p0(i64 8, ptr %4) #8
  store ptr null, ptr %4, align 8, !tbaa !13
  call void @llvm.lifetime.start.p0(i64 8, ptr %5) #8
  store ptr null, ptr %5, align 8, !tbaa !29
  call void @llvm.lifetime.start.p0(i64 8, ptr %6) #8
  store ptr null, ptr %6, align 8, !tbaa !4
  call void @llvm.lifetime.start.p0(i64 4, ptr %7) #8
  store i32 0, ptr %7, align 4, !tbaa !9
  call void @llvm.lifetime.start.p0(i64 4, ptr %8) #8
  store i32 0, ptr %8, align 4, !tbaa !9
  %10 = load ptr, ptr %3, align 8, !tbaa !11
  %11 = call i32 @test_ptr(ptr noundef @.str.18, i32 noundef 4042, ptr noundef @.str.531, ptr noundef %10)
  %12 = icmp ne i32 %11, 0
  br i1 %12, label %14, label %13

13:                                               ; preds = %1
  br label %43

14:                                               ; preds = %1
  %15 = load ptr, ptr %3, align 8, !tbaa !11
  %16 = call ptr @OSSL_PROVIDER_load(ptr noundef %15, ptr noundef @.str.21)
  store ptr %16, ptr %4, align 8, !tbaa !13
  %17 = load ptr, ptr %4, align 8, !tbaa !13
  %18 = call i32 @test_ptr(ptr noundef @.str.18, i32 noundef 4046, ptr noundef @.str.532, ptr noundef %17)
  %19 = icmp ne i32 %18, 0
  br i1 %19, label %21, label %20

20:                                               ; preds = %14
  br label %43

21:                                               ; preds = %14
  %22 = load i32, ptr %2, align 4, !tbaa !9
  switch i32 %22, label %25 [
    i32 0, label %23
    i32 1, label %24
  ]

23:                                               ; preds = %21
  store ptr @.str.140, ptr %6, align 8, !tbaa !4
  store i32 1, ptr %7, align 4, !tbaa !9
  br label %27

24:                                               ; preds = %21
  store ptr @.str.247, ptr %6, align 8, !tbaa !4
  store i32 1, ptr %7, align 4, !tbaa !9
  br label %27

25:                                               ; preds = %21
  %26 = load i32, ptr %2, align 4, !tbaa !9
  call void (ptr, i32, ptr, ...) @test_error(ptr noundef @.str.18, i32 noundef 4074, ptr noundef @.str.533, i32 noundef %26)
  br label %43

27:                                               ; preds = %24, %23
  %28 = load ptr, ptr %3, align 8, !tbaa !11
  %29 = load ptr, ptr %6, align 8, !tbaa !4
  %30 = call ptr @EVP_PKEY_CTX_new_from_name(ptr noundef %28, ptr noundef %29, ptr noundef @.str.301)
  store ptr %30, ptr %5, align 8, !tbaa !29
  %31 = load i32, ptr %7, align 4, !tbaa !9
  %32 = icmp ne i32 %31, 0
  br i1 %32, label %33, label %37

33:                                               ; preds = %27
  %34 = load ptr, ptr %5, align 8, !tbaa !29
  %35 = call i32 @test_ptr_null(ptr noundef @.str.18, i32 noundef 4079, ptr noundef @.str.534, ptr noundef %34)
  %36 = icmp ne i32 %35, 0
  br i1 %36, label %42, label %41

37:                                               ; preds = %27
  %38 = load ptr, ptr %5, align 8, !tbaa !29
  %39 = call i32 @test_ptr(ptr noundef @.str.18, i32 noundef 4079, ptr noundef @.str.534, ptr noundef %38)
  %40 = icmp ne i32 %39, 0
  br i1 %40, label %42, label %41

41:                                               ; preds = %37, %33
  br label %43

42:                                               ; preds = %37, %33
  store i32 1, ptr %8, align 4, !tbaa !9
  br label %43

43:                                               ; preds = %42, %41, %25, %20, %13
  %44 = load ptr, ptr %5, align 8, !tbaa !29
  call void @EVP_PKEY_CTX_free(ptr noundef %44)
  %45 = load ptr, ptr %4, align 8, !tbaa !13
  %46 = call i32 @OSSL_PROVIDER_unload(ptr noundef %45)
  %47 = load ptr, ptr %3, align 8, !tbaa !11
  call void @OSSL_LIB_CTX_free(ptr noundef %47)
  %48 = load i32, ptr %8, align 4, !tbaa !9
  call void @llvm.lifetime.end.p0(i64 4, ptr %8) #8
  call void @llvm.lifetime.end.p0(i64 4, ptr %7) #8
  call void @llvm.lifetime.end.p0(i64 8, ptr %6) #8
  call void @llvm.lifetime.end.p0(i64 8, ptr %5) #8
  call void @llvm.lifetime.end.p0(i64 8, ptr %4) #8
  call void @llvm.lifetime.end.p0(i64 8, ptr %3) #8
  ret i32 %48
}