; Function Attrs: nounwind uwtable
define internal range(i32 0, 2) i32 @test_pkey_ctx_fail_without_provider(i32 noundef %0) #1 {
  %2 = tail call ptr @OSSL_LIB_CTX_new() #9
  %3 = tail call i32 @test_ptr(ptr noundef nonnull @.str.18, i32 noundef 4042, ptr noundef nonnull @.str.531, ptr noundef %2) #9
  %.not = icmp eq i32 %3, 0
  br i1 %.not, label %13, label %4

4:                                                ; preds = %1
  %5 = tail call ptr @OSSL_PROVIDER_load(ptr noundef %2, ptr noundef nonnull @.str.21) #9
  %6 = tail call i32 @test_ptr(ptr noundef nonnull @.str.18, i32 noundef 4046, ptr noundef nonnull @.str.532, ptr noundef %5) #9
  %.not17 = icmp eq i32 %6, 0
  br i1 %.not17, label %13, label %7

7:                                                ; preds = %4
  switch i32 %0, label %9 [
    i32 0, label %10
    i32 1, label %8
  ]

8:                                                ; preds = %7
  br label %10

9:                                                ; preds = %7
  tail call void (ptr, i32, ptr, ...) @test_error(ptr noundef nonnull @.str.18, i32 noundef 4074, ptr noundef nonnull @.str.533, i32 noundef %0) #9
  br label %13

10:                                               ; preds = %7, %8
  %.014 = phi ptr [ @.str.247, %8 ], [ @.str.140, %7 ]
  %11 = tail call ptr @EVP_PKEY_CTX_new_from_name(ptr noundef %2, ptr noundef nonnull %.014, ptr noundef nonnull @.str.301) #9
  %12 = tail call i32 @test_ptr_null(ptr noundef nonnull @.str.18, i32 noundef 4079, ptr noundef nonnull @.str.534, ptr noundef %11) #9
  %.not18 = icmp ne i32 %12, 0
  %spec.select = zext i1 %.not18 to i32
  br label %13

13:                                               ; preds = %10, %4, %1, %9
  %.016 = phi ptr [ %5, %9 ], [ %5, %4 ], [ null, %1 ], [ %5, %10 ]
  %.015 = phi ptr [ null, %9 ], [ null, %4 ], [ null, %1 ], [ %11, %10 ]
  %.0 = phi i32 [ 0, %9 ], [ 0, %4 ], [ 0, %1 ], [ %spec.select, %10 ]
  tail call void @EVP_PKEY_CTX_free(ptr noundef %.015) #9
  %14 = tail call i32 @OSSL_PROVIDER_unload(ptr noundef %.016) #9
  tail call void @OSSL_LIB_CTX_free(ptr noundef %2) #9
  ret i32 %.0
}